; Function Attrs: nounwind uwtable
define noalias nonnull ptr @l_Lake_instAlternativeJobM___lambda__1(ptr readnone captures(none) %0, ptr readnone captures(none) %1, ptr readnone captures(none) %2, ptr readnone captures(none) %3, ptr readnone captures(none) %4, ptr noundef %5, ptr noundef %6) local_unnamed_addr #0 {
  %8 = getelementptr inbounds nuw i8, ptr %5, i64 8
  %9 = load ptr, ptr %8, align 8, !tbaa !4
  %10 = ptrtoint ptr %9 to i64
  %11 = and i64 %10, 1
  %.not = icmp eq i64 %11, 0
  br i1 %.not, label %12, label %lean_inc.exit

12:                                               ; preds = %7
  %.val.i = load i32, ptr %9, align 4, !tbaa !8
  %13 = icmp sgt i32 %.val.i, 0
  br i1 %13, label %14, label %16, !prof !11

14:                                               ; preds = %12
  %15 = add nuw i32 %.val.i, 1
  store i32 %15, ptr %9, align 4, !tbaa !8
  br label %20

16:                                               ; preds = %12
  %.not.i13 = icmp eq i32 %.val.i, 0
  br i1 %.not.i13, label %.thread17, label %18

.thread17:                                        ; preds = %16
  %17 = getelementptr i8, ptr %9, i64 8
  %.val1516 = load i64, ptr %17, align 8, !tbaa !12
  br label %lean_dec.exit

18:                                               ; preds = %16
  tail call void @lean_inc_ref_cold(ptr noundef nonnull %9) #4
  %.pr = load i32, ptr %9, align 4, !tbaa !8
  br label %20

lean_inc.exit:                                    ; preds = %7
  %19 = getelementptr i8, ptr %9, i64 8
  %.val = load i64, ptr %19, align 8, !tbaa !12
  br label %lean_dec.exit

20:                                               ; preds = %18, %14
  %21 = phi i32 [ %.pr, %18 ], [ %15, %14 ]
  %22 = getelementptr i8, ptr %9, i64 8
  %.val15 = load i64, ptr %22, align 8, !tbaa !12
  %23 = icmp sgt i32 %21, 1
  br i1 %23, label %24, label %26, !prof !17

24:                                               ; preds = %20
  %25 = add nsw i32 %21, -1
  store i32 %25, ptr %9, align 4, !tbaa !8
  br label %lean_dec.exit

26:                                               ; preds = %20
  %.not.i = icmp eq i32 %21, 0
  br i1 %.not.i, label %lean_dec.exit, label %27

27:                                               ; preds = %26
  tail call void @lean_dec_ref_cold(ptr noundef nonnull %9) #4
  br label %lean_dec.exit

lean_dec.exit:                                    ; preds = %27, %26, %24, %.thread17, %lean_inc.exit
  %.in.in.in = phi i64 [ %.val, %lean_inc.exit ], [ %.val15, %24 ], [ %.val15, %26 ], [ %.val15, %27 ], [ %.val1516, %.thread17 ]
  tail call void @lean_inc_heartbeat() #4
  %28 = tail call noalias ptr @mi_malloc_small(i64 noundef 24) #4
  %29 = icmp eq ptr %28, null
  br i1 %29, label %30, label %lean_alloc_ctor.exit

30:                                               ; preds = %lean_dec.exit
  tail call void @lean_internal_panic_out_of_memory() #5
  unreachable

lean_alloc_ctor.exit:                             ; preds = %lean_dec.exit
  %.in.in = shl i64 %.in.in.in, 1
  %.in = or disjoint i64 %.in.in, 1
  %31 = inttoptr i64 %.in to ptr
  %32 = getelementptr inbounds nuw i8, ptr %28, i64 4
  store i32 1, ptr %28, align 4, !tbaa !8
  store i32 16908312, ptr %32, align 4
  %33 = getelementptr inbounds nuw i8, ptr %28, i64 8
  store ptr %31, ptr %33, align 8, !tbaa !4
  %34 = getelementptr inbounds nuw i8, ptr %28, i64 16
  store ptr %5, ptr %34, align 8, !tbaa !4
  tail call void @lean_inc_heartbeat() #4
  %35 = tail call noalias ptr @mi_malloc_small(i64 noundef 24) #4
  %36 = icmp eq ptr %35, null
  br i1 %36, label %37, label %lean_alloc_ctor.exit14

37:                                               ; preds = %lean_alloc_ctor.exit
  tail call void @lean_internal_panic_out_of_memory() #5
  unreachable

lean_alloc_ctor.exit14:                           ; preds = %lean_alloc_ctor.exit
  %38 = getelementptr inbounds nuw i8, ptr %35, i64 4
  store i32 1, ptr %35, align 4, !tbaa !8
  store i32 131096, ptr %38, align 4
  %39 = getelementptr inbounds nuw i8, ptr %35, i64 8
  store ptr %28, ptr %39, align 8, !tbaa !4
  %40 = getelementptr inbounds nuw i8, ptr %35, i64 16
  store ptr %6, ptr %40, align 8, !tbaa !4
  ret ptr %35
}